target datalayout = "e-m:e-p270:32:32-p271:32:32-p272:64:64-i64:64-i128:128-f80:128-n8:16:32:64-S128"
target triple = "x86_64-pc-linux-gnu"

%struct.blake2sp_state = type { [8 x %struct.blake2s_state], %struct.blake2s_state, [512 x i8], i64 }
%struct.blake2s_state = type <{ [240 x i8], ptr, ptr, ptr, ptr, i64, i8, [7 x i8] }>

@_ZL10blake2s_IV = internal constant [8 x i32] [i32 1779033703, i32 -1150833019, i32 1013904242, i32 -1521486534, i32 1359893119, i32 -1694144372, i32 528734635, i32 1541459225], align 16

; Function Attrs: mustprogress nounwind uwtable
define linkonce_odr void @_ZN13blake2s_state4initEv(ptr noundef nonnull align 8 dereferenceable(281) %0) #4 comdat align 2 {
  %2 = alloca ptr, align 8
  store ptr %0, ptr %2, align 8, !tbaa !20
  %3 = load ptr, ptr %2, align 8
  %4 = getelementptr inbounds nuw %struct.blake2s_state, ptr %3, i32 0, i32 0
  %5 = getelementptr inbounds [240 x i8], ptr %4, i64 0, i64 0
  call void @llvm.memset.p0.i64(ptr align 8 %5, i8 0, i64 240, i1 false)
  %6 = getelementptr inbounds nuw %struct.blake2s_state, ptr %3, i32 0, i32 5
  store i64 0, ptr %6, align 8, !tbaa !33
  %7 = getelementptr inbounds nuw %struct.blake2s_state, ptr %3, i32 0, i32 6
  store i8 0, ptr %7, align 8, !tbaa !19
  ret void
}

; Function Attrs: mustprogress uwtable
define internal void @_ZL18blake2s_init_paramP13blake2s_statejj(ptr noundef %0, i32 noundef %1, i32 noundef %2) #0 {
  %4 = alloca ptr, align 8
  %5 = alloca i32, align 4
  %6 = alloca i32, align 4
  %7 = alloca i32, align 4
  store ptr %0, ptr %4, align 8, !tbaa !20
  store i32 %1, ptr %5, align 4, !tbaa !14
  store i32 %2, ptr %6, align 4, !tbaa !14
  %8 = load ptr, ptr %4, align 8, !tbaa !20
  call void @_ZN13blake2s_state4initEv(ptr noundef nonnull align 8 dereferenceable(281) %8)
  call void @llvm.lifetime.start.p0(i64 4, ptr %7) #7
  store i32 0, ptr %7, align 4, !tbaa !14
  br label %9

9:                                                ; preds = %24, %3
  %10 = load i32, ptr %7, align 4, !tbaa !14
  %11 = icmp slt i32 %10, 8
  br i1 %11, label %13, label %12

12:                                               ; preds = %9
  call void @llvm.lifetime.end.p0(i64 4, ptr %7) #7
  br label %27

13:                                               ; preds = %9
  %14 = load i32, ptr %7, align 4, !tbaa !14
  %15 = sext i32 %14 to i64
  %16 = getelementptr inbounds [8 x i32], ptr @_ZL10blake2s_IV, i64 0, i64 %15
  %17 = load i32, ptr %16, align 4, !tbaa !14
  %18 = load ptr, ptr %4, align 8, !tbaa !20
  %19 = getelementptr inbounds nuw %struct.blake2s_state, ptr %18, i32 0, i32 2
  %20 = load ptr, ptr %19, align 8, !tbaa !22
  %21 = load i32, ptr %7, align 4, !tbaa !14
  %22 = sext i32 %21 to i64
  %23 = getelementptr inbounds i32, ptr %20, i64 %22
  store i32 %17, ptr %23, align 4, !tbaa !14
  br label %24

24:                                               ; preds = %13
  %25 = load i32, ptr %7, align 4, !tbaa !14
  %26 = add nsw i32 %25, 1
  store i32 %26, ptr %7, align 4, !tbaa !14
  br label %9, !llvm.loop !23

27:                                               ; preds = %12
  %28 = load ptr, ptr %4, align 8, !tbaa !20
  %29 = getelementptr inbounds nuw %struct.blake2s_state, ptr %28, i32 0, i32 2
  %30 = load ptr, ptr %29, align 8, !tbaa !22
  %31 = getelementptr inbounds i32, ptr %30, i64 0
  %32 = load i32, ptr %31, align 4, !tbaa !14
  %33 = xor i32 %32, 34078752
  store i32 %33, ptr %31, align 4, !tbaa !14
  %34 = load i32, ptr %5, align 4, !tbaa !14
  %35 = load ptr, ptr %4, align 8, !tbaa !20
  %36 = getelementptr inbounds nuw %struct.blake2s_state, ptr %35, i32 0, i32 2
  %37 = load ptr, ptr %36, align 8, !tbaa !22
  %38 = getelementptr inbounds i32, ptr %37, i64 2
  %39 = load i32, ptr %38, align 4, !tbaa !14
  %40 = xor i32 %39, %34
  store i32 %40, ptr %38, align 4, !tbaa !14
  %41 = load i32, ptr %6, align 4, !tbaa !14
  %42 = shl i32 %41, 16
  %43 = or i32 %42, 536870912
  %44 = load ptr, ptr %4, align 8, !tbaa !20
  %45 = getelementptr inbounds nuw %struct.blake2s_state, ptr %44, i32 0, i32 2
  %46 = load ptr, ptr %45, align 8, !tbaa !22
  %47 = getelementptr inbounds i32, ptr %46, i64 3
  %48 = load i32, ptr %47, align 4, !tbaa !14
  %49 = xor i32 %48, %43
  store i32 %49, ptr %47, align 4, !tbaa !14
  ret void
}

; Function Attrs: mustprogress uwtable
define void @_Z13blake2sp_initP14blake2sp_state(ptr noundef %0) #0 {
  %2 = alloca ptr, align 8
  %3 = alloca i32, align 4
  store ptr %0, ptr %2, align 8, !tbaa !3
  %4 = load ptr, ptr %2, align 8, !tbaa !3
  %5 = getelementptr inbounds nuw %struct.blake2sp_state, ptr %4, i32 0, i32 2
  %6 = getelementptr inbounds [512 x i8], ptr %5, i64 0, i64 0
  call void @llvm.memset.p0.i64(ptr align 8 %6, i8 0, i64 512, i1 false)
  %7 = load ptr, ptr %2, align 8, !tbaa !3
  %8 = getelementptr inbounds nuw %struct.blake2sp_state, ptr %7, i32 0, i32 3
  store i64 0, ptr %8, align 8, !tbaa !8
  %9 = load ptr, ptr %2, align 8, !tbaa !3
  %10 = getelementptr inbounds nuw %struct.blake2sp_state, ptr %9, i32 0, i32 1
  call void @_ZL18blake2s_init_paramP13blake2s_statejj(ptr noundef %10, i32 noundef 0, i32 noundef 1)
  call void @llvm.lifetime.start.p0(i64 4, ptr %3) #7
  store i32 0, ptr %3, align 4, !tbaa !14
  br label %11

11:                                               ; preds = %22, %1
  %12 = load i32, ptr %3, align 4, !tbaa !14
  %13 = icmp ult i32 %12, 8
  br i1 %13, label %15, label %14

14:                                               ; preds = %11
  call void @llvm.lifetime.end.p0(i64 4, ptr %3) #7
  br label %25

15:                                               ; preds = %11
  %16 = load ptr, ptr %2, align 8, !tbaa !3
  %17 = getelementptr inbounds nuw %struct.blake2sp_state, ptr %16, i32 0, i32 0
  %18 = load i32, ptr %3, align 4, !tbaa !14
  %19 = zext i32 %18 to i64
  %20 = getelementptr inbounds nuw [8 x %struct.blake2s_state], ptr %17, i64 0, i64 %19
  %21 = load i32, ptr %3, align 4, !tbaa !14
  call void @_ZL18blake2s_init_paramP13blake2s_statejj(ptr noundef %20, i32 noundef %21, i32 noundef 0)
  br label %22

22:                                               ; preds = %15
  %23 = load i32, ptr %3, align 4, !tbaa !14
  %24 = add i32 %23, 1
  store i32 %24, ptr %3, align 4, !tbaa !14
  br label %11, !llvm.loop !16

25:                                               ; preds = %14
  %26 = load ptr, ptr %2, align 8, !tbaa !3
  %27 = getelementptr inbounds nuw %struct.blake2sp_state, ptr %26, i32 0, i32 1
  %28 = getelementptr inbounds nuw %struct.blake2s_state, ptr %27, i32 0, i32 6
  store i8 1, ptr %28, align 8, !tbaa !18
  %29 = load ptr, ptr %2, align 8, !tbaa !3
  %30 = getelementptr inbounds nuw %struct.blake2sp_state, ptr %29, i32 0, i32 0
  %31 = getelementptr inbounds [8 x %struct.blake2s_state], ptr %30, i64 0, i64 7
  %32 = getelementptr inbounds nuw %struct.blake2s_state, ptr %31, i32 0, i32 6
  store i8 1, ptr %32, align 8, !tbaa !19
  ret void
}