; Function Attrs: mustprogress nofree norecurse nosync nounwind memory(readwrite, inaccessiblemem: none) uwtable
define void @_Z13blake2sp_initP14blake2sp_state(ptr noundef captures(none) initializes((2304, 2544), (2576, 2584), (2592, 3112)) %0) local_unnamed_addr #0 {
  %2 = getelementptr inbounds nuw i8, ptr %0, i64 2592
  %3 = getelementptr inbounds nuw i8, ptr %0, i64 2304
  tail call void @llvm.memset.p0.i64(ptr noundef nonnull align 8 dereferenceable(281) %3, i8 0, i64 240, i1 false)
  %4 = getelementptr inbounds nuw i8, ptr %0, i64 2576
  store i64 0, ptr %4, align 8, !tbaa !3
  %5 = getelementptr inbounds nuw i8, ptr %0, i64 2552
  tail call void @llvm.memset.p0.i64(ptr noundef nonnull align 8 dereferenceable(520) %2, i8 0, i64 520, i1 false)
  %6 = load ptr, ptr %5, align 8, !tbaa !11
  tail call void @llvm.memcpy.p0.p0.i64(ptr noundef nonnull align 4 dereferenceable(32) %6, ptr noundef nonnull align 16 dereferenceable(32) @_ZL10blake2s_IV, i64 32, i1 false), !tbaa !12
  store i32 1744954951, ptr %6, align 4, !tbaa !12
  %7 = getelementptr inbounds nuw i8, ptr %6, i64 8
  store i32 1013904242, ptr %7, align 4, !tbaa !12
  %8 = getelementptr inbounds nuw i8, ptr %6, i64 12
  store i32 -2058422982, ptr %8, align 4, !tbaa !12
  br label %12

9:                                                ; preds = %12
  %10 = getelementptr inbounds nuw i8, ptr %0, i64 2584
  store i8 1, ptr %10, align 8, !tbaa !14
  %11 = getelementptr inbounds nuw i8, ptr %0, i64 2296
  store i8 1, ptr %11, align 8, !tbaa !16
  ret void

12:                                               ; preds = %1, %12
  %indvars.iv = phi i64 [ 0, %1 ], [ %indvars.iv.next, %12 ]
  %13 = getelementptr inbounds nuw [8 x %struct.blake2s_state], ptr %0, i64 0, i64 %indvars.iv
  tail call void @llvm.memset.p0.i64(ptr noundef nonnull align 8 dereferenceable(281) %13, i8 0, i64 240, i1 false)
  %14 = getelementptr inbounds nuw i8, ptr %13, i64 272
  store i64 0, ptr %14, align 8, !tbaa !3
  %15 = getelementptr inbounds nuw i8, ptr %13, i64 280
  store i8 0, ptr %15, align 8, !tbaa !16
  %16 = getelementptr inbounds nuw i8, ptr %13, i64 248
  %17 = load ptr, ptr %16, align 8, !tbaa !11
  tail call void @llvm.memcpy.p0.p0.i64(ptr noundef nonnull align 4 dereferenceable(32) %17, ptr noundef nonnull align 16 dereferenceable(32) @_ZL10blake2s_IV, i64 32, i1 false), !tbaa !12
  store i32 1744954951, ptr %17, align 4, !tbaa !12
  %18 = getelementptr inbounds nuw i8, ptr %17, i64 8
  %19 = trunc nuw nsw i64 %indvars.iv to i32
  %20 = xor i32 %19, 1013904242
  store i32 %20, ptr %18, align 4, !tbaa !12
  %21 = getelementptr inbounds nuw i8, ptr %17, i64 12
  store i32 -2058357446, ptr %21, align 4, !tbaa !12
  %indvars.iv.next = add nuw nsw i64 %indvars.iv, 1
  %exitcond.not = icmp eq i64 %indvars.iv.next, 8
  br i1 %exitcond.not, label %9, label %12, !llvm.loop !17
}